(dp1
S'failed'
p2
(lp3
sS'source_names'
p4
(lp5
S'apache_beam.runners.interactive.caching.filebasedcache_it_test'
p6
asS'ids'
p7
(dp8
I1
(S'/usr/local/google/home/strokach/workspace/beam/sdks/python/apache_beam/runners/interactive/caching/filebasedcache_it_test.py'
S'apache_beam.runners.interactive.caching.filebasedcache_it_test'
p9
S'AvroBasedCacheRoundtripTest.test_roundtrip_00_empty_0_write_directly_read_directly'
tp10
sI2
(S'/usr/local/google/home/strokach/workspace/beam/sdks/python/apache_beam/runners/interactive/caching/filebasedcache_it_test.py'
g9
S'AvroBasedCacheRoundtripTest.test_roundtrip_01_empty_0_write_directly_read_through_pipeline'
tp11
sI3
(S'/usr/local/google/home/strokach/workspace/beam/sdks/python/apache_beam/runners/interactive/caching/filebasedcache_it_test.py'
g9
S'AvroBasedCacheRoundtripTest.test_roundtrip_02_empty_0_write_through_pipeline_read_directly'
tp12
sI4
(S'/usr/local/google/home/strokach/workspace/beam/sdks/python/apache_beam/runners/interactive/caching/filebasedcache_it_test.py'
g9
S'AvroBasedCacheRoundtripTest.test_roundtrip_03_empty_0_write_through_pipeline_read_through_pipeline'
tp13
sI5
(S'/usr/local/google/home/strokach/workspace/beam/sdks/python/apache_beam/runners/interactive/caching/filebasedcache_it_test.py'
g9
S'AvroBasedCacheRoundtripTest.test_roundtrip_04_empty_1_write_directly_read_directly'
tp14
sI6
(S'/usr/local/google/home/strokach/workspace/beam/sdks/python/apache_beam/runners/interactive/caching/filebasedcache_it_test.py'
g9
S'AvroBasedCacheRoundtripTest.test_roundtrip_05_empty_1_write_directly_read_through_pipeline'
tp15
sI7
(S'/usr/local/google/home/strokach/workspace/beam/sdks/python/apache_beam/runners/interactive/caching/filebasedcache_it_test.py'
g9
S'AvroBasedCacheRoundtripTest.test_roundtrip_06_empty_1_write_through_pipeline_read_directly'
tp16
sI8
(S'/usr/local/google/home/strokach/workspace/beam/sdks/python/apache_beam/runners/interactive/caching/filebasedcache_it_test.py'
g9
S'AvroBasedCacheRoundtripTest.test_roundtrip_07_empty_1_write_through_pipeline_read_through_pipeline'
tp17
ss.